; Function Attrs: mustprogress uwtable
define dso_local noundef nonnull align 8 dereferenceable(24) ptr @_ZN4i18n12phonenumbers11UnicodeText6appendERKS1_(ptr noundef nonnull returned align 8 dereferenceable(24) %0, ptr noundef nonnull readonly align 8 captures(none) dereferenceable(24) %1) local_unnamed_addr #1 align 2 {
  %3 = load ptr, ptr %1, align 8, !tbaa !44
  %4 = getelementptr inbounds nuw i8, ptr %1, i64 8
  %5 = load i32, ptr %4, align 8, !tbaa !46
  %6 = getelementptr inbounds nuw i8, ptr %0, i64 8
  %7 = load i32, ptr %6, align 8, !tbaa !21
  %8 = add nsw i32 %7, %5
  %9 = getelementptr inbounds nuw i8, ptr %0, i64 12
  %10 = load i32, ptr %9, align 4, !tbaa !13
  %.not.i.i = icmp slt i32 %10, %8
  br i1 %.not.i.i, label %15, label %11

11:                                               ; preds = %2
  %12 = getelementptr inbounds nuw i8, ptr %0, i64 16
  %13 = load i8, ptr %12, align 8, !tbaa !17, !range !18, !noundef !19
  %14 = trunc nuw i8 %13 to i1
  br i1 %14, label %._ZN4i18n12phonenumbers11UnicodeText4Repr7reserveEi.exit_crit_edge.i, label %15

._ZN4i18n12phonenumbers11UnicodeText4Repr7reserveEi.exit_crit_edge.i: ; preds = %11
  %.pre.i = load ptr, ptr %0, align 8, !tbaa !20
  br label %_ZN4i18n12phonenumbers11UnicodeText4Repr6appendEPKci.exit

15:                                               ; preds = %11, %2
  %16 = mul nsw i32 %10, 3
  %17 = sdiv i32 %16, 2
  %18 = add nsw i32 %17, 20
  %.sroa.speculated.i.i = tail call i32 @llvm.smax.i32(i32 %8, i32 %18)
  store i32 %.sroa.speculated.i.i, ptr %9, align 4, !tbaa !13
  %19 = sext i32 %.sroa.speculated.i.i to i64
  %20 = tail call noalias noundef nonnull ptr @_Znam(i64 noundef %19) #25
  %21 = load ptr, ptr %0, align 8, !tbaa !20
  %.not4.i.i = icmp eq ptr %21, null
  br i1 %.not4.i.i, label %28, label %22

22:                                               ; preds = %15
  %23 = sext i32 %7 to i64
  tail call void @llvm.memcpy.p0.p0.i64(ptr nonnull align 1 %20, ptr nonnull align 1 %21, i64 %23, i1 false)
  %24 = getelementptr inbounds nuw i8, ptr %0, i64 16
  %25 = load i8, ptr %24, align 8, !tbaa !17, !range !18, !noundef !19
  %26 = trunc nuw i8 %25 to i1
  br i1 %26, label %27, label %28

27:                                               ; preds = %22
  tail call void @_ZdaPv(ptr noundef nonnull %21) #26
  %.pre4.pre.i = load i32, ptr %6, align 8, !tbaa !21
  br label %28

28:                                               ; preds = %27, %22, %15
  %.pre4.i = phi i32 [ %.pre4.pre.i, %27 ], [ %7, %22 ], [ %7, %15 ]
  store ptr %20, ptr %0, align 8, !tbaa !20
  %29 = getelementptr inbounds nuw i8, ptr %0, i64 16
  store i8 1, ptr %29, align 8, !tbaa !17
  br label %_ZN4i18n12phonenumbers11UnicodeText4Repr6appendEPKci.exit

_ZN4i18n12phonenumbers11UnicodeText4Repr6appendEPKci.exit: ; preds = %._ZN4i18n12phonenumbers11UnicodeText4Repr7reserveEi.exit_crit_edge.i, %28
  %30 = phi i32 [ %7, %._ZN4i18n12phonenumbers11UnicodeText4Repr7reserveEi.exit_crit_edge.i ], [ %.pre4.i, %28 ]
  %31 = phi ptr [ %.pre.i, %._ZN4i18n12phonenumbers11UnicodeText4Repr7reserveEi.exit_crit_edge.i ], [ %20, %28 ]
  %32 = sext i32 %30 to i64
  %33 = getelementptr inbounds i8, ptr %31, i64 %32
  %34 = sext i32 %5 to i64
  tail call void @llvm.memcpy.p0.p0.i64(ptr align 1 %33, ptr readonly align 1 %3, i64 %34, i1 false)
  %35 = load i32, ptr %6, align 8, !tbaa !21
  %36 = add nsw i32 %35, %5
  store i32 %36, ptr %6, align 8, !tbaa !21
  ret ptr %0
}